target datalayout = "e-m:e-p270:32:32-p271:32:32-p272:64:64-i64:64-i128:128-f80:128-n8:16:32:64-S128"
target triple = "x86_64-pc-linux-gnu"

%struct.pmix_lock_t = type { i32, %struct.pmix_mutex_t, %union.pthread_cond_t, i8 }
%struct.pmix_mutex_t = type { %struct.pmix_object_t, %union.pthread_mutex_t }
%struct.pmix_object_t = type { %union.pthread_mutex_t, ptr, i32, %struct.pmix_tma }
%struct.pmix_tma = type { ptr, ptr, ptr, ptr, ptr, ptr, ptr, ptr }
%union.pthread_mutex_t = type { %struct.__pthread_mutex_s }
%struct.__pthread_mutex_s = type { i32, i32, i32, i32, i32, i16, i16, %struct.__pthread_internal_list }
%struct.__pthread_internal_list = type { ptr, ptr }
%union.pthread_cond_t = type { %struct.__pthread_cond_s }
%struct.__pthread_cond_s = type { %union.__atomic_wide_counter, %union.__atomic_wide_counter, [2 x i32], [2 x i32], i32, i32, [2 x i32] }
%union.__atomic_wide_counter = type { i64 }
%struct.timeval = type { i64, i64 }
%struct.pmix_list_t = type { %struct.pmix_object_t, %struct.pmix_list_item_t, i64 }
%struct.pmix_list_item_t = type { %struct.pmix_object_t, ptr, ptr, i32 }
%struct.pmix_cb_t = type { %struct.pmix_list_item_t, %struct.event, %struct.pmix_lock_t, i8, i32, i32, i8, %struct.pmix_buffer_t, %union.anon.8, i64, ptr, %struct.pmix_name_t, ptr, ptr, ptr, ptr, i64, ptr, i64, ptr, i8, i64, %struct.pmix_list_t, i8, ptr, i8, ptr, ptr }
%struct.event = type { %struct.event_callback, %union.anon.0, i32, ptr, %union.anon.2, i16, i16, %struct.timeval }
%struct.event_callback = type { %struct.anon, i16, i8, i8, %union.anon, ptr }
%struct.anon = type { ptr, ptr }
%union.anon = type { ptr }
%union.anon.0 = type { %struct.anon.1 }
%struct.anon.1 = type { ptr, ptr }
%union.anon.2 = type { %struct.anon.3 }
%struct.anon.3 = type { %struct.anon.4, %struct.timeval }
%struct.anon.4 = type { ptr, ptr }
%struct.pmix_buffer_t = type { %struct.pmix_object_t, i8, ptr, ptr, ptr, i64, i64 }
%union.anon.8 = type { ptr }
%struct.pmix_name_t = type { ptr, i32 }
%struct.pmix_device_distance = type { ptr, ptr, i64, i16, i16 }

; Function Attrs: inlinehint nounwind uwtable
define internal void @pmix_mutex_unlock(ptr noundef %0) #2 {
  %2 = alloca ptr, align 8
  store ptr %0, ptr %2, align 8, !tbaa !64
  %3 = load ptr, ptr %2, align 8, !tbaa !64
  %4 = getelementptr inbounds nuw %struct.pmix_mutex_t, ptr %3, i32 0, i32 1
  %5 = call i32 @pthread_mutex_unlock(ptr noundef %4) #10
  ret void
}

; Function Attrs: inlinehint nounwind uwtable
define internal void @pmix_atomic_wmb() #2 {
  fence release
  ret void
}

; Function Attrs: inlinehint nounwind uwtable
define internal void @pmix_mutex_lock(ptr noundef %0) #2 {
  %2 = alloca ptr, align 8
  store ptr %0, ptr %2, align 8, !tbaa !64
  %3 = load ptr, ptr %2, align 8, !tbaa !64
  %4 = getelementptr inbounds nuw %struct.pmix_mutex_t, ptr %3, i32 0, i32 1
  %5 = call i32 @pthread_mutex_lock(ptr noundef %4) #10
  ret void
}

; Function Attrs: nounwind uwtable
define internal void @distcb(i32 noundef %0, ptr noundef %1, i64 noundef %2, ptr noundef %3, ptr noundef %4, ptr noundef %5) #0 {
  %7 = alloca i32, align 4
  %8 = alloca ptr, align 8
  %9 = alloca i64, align 8
  %10 = alloca ptr, align 8
  %11 = alloca ptr, align 8
  %12 = alloca ptr, align 8
  %13 = alloca ptr, align 8
  %14 = alloca i64, align 8
  store i32 %0, ptr %7, align 4, !tbaa !41
  store ptr %1, ptr %8, align 8, !tbaa !100
  store i64 %2, ptr %9, align 8, !tbaa !92
  store ptr %3, ptr %10, align 8, !tbaa !3
  store ptr %4, ptr %11, align 8, !tbaa !3
  store ptr %5, ptr %12, align 8, !tbaa !3
  call void @llvm.lifetime.start.p0(i64 8, ptr %13) #10
  %15 = load ptr, ptr %10, align 8, !tbaa !3
  store ptr %15, ptr %13, align 8, !tbaa !3
  call void @llvm.lifetime.start.p0(i64 8, ptr %14) #10
  %16 = load i32, ptr %7, align 4, !tbaa !41
  %17 = load ptr, ptr %13, align 8, !tbaa !3
  %18 = getelementptr inbounds nuw %struct.pmix_cb_t, ptr %17, i32 0, i32 4
  store i32 %16, ptr %18, align 4, !tbaa !102
  %19 = load i64, ptr %9, align 8, !tbaa !92
  %20 = load ptr, ptr %13, align 8, !tbaa !3
  %21 = getelementptr inbounds nuw %struct.pmix_cb_t, ptr %20, i32 0, i32 21
  store i64 %19, ptr %21, align 8, !tbaa !104
  %22 = load i32, ptr %7, align 4, !tbaa !41
  %23 = icmp eq i32 0, %22
  br i1 %23, label %24, label %118

24:                                               ; preds = %6
  %25 = load i64, ptr %9, align 8, !tbaa !92
  %26 = icmp ult i64 0, %25
  br i1 %26, label %27, label %118

27:                                               ; preds = %24
  %28 = load ptr, ptr %13, align 8, !tbaa !3
  %29 = getelementptr inbounds nuw %struct.pmix_cb_t, ptr %28, i32 0, i32 21
  %30 = load i64, ptr %29, align 8, !tbaa !104
  %31 = call ptr @PMIx_Device_distance_create(i64 noundef %30)
  %32 = load ptr, ptr %13, align 8, !tbaa !3
  %33 = getelementptr inbounds nuw %struct.pmix_cb_t, ptr %32, i32 0, i32 19
  store ptr %31, ptr %33, align 8, !tbaa !103
  store i64 0, ptr %14, align 8, !tbaa !92
  br label %34

34:                                               ; preds = %114, %27
  %35 = load i64, ptr %14, align 8, !tbaa !92
  %36 = load ptr, ptr %13, align 8, !tbaa !3
  %37 = getelementptr inbounds nuw %struct.pmix_cb_t, ptr %36, i32 0, i32 21
  %38 = load i64, ptr %37, align 8, !tbaa !104
  %39 = icmp ult i64 %35, %38
  br i1 %39, label %40, label %117

40:                                               ; preds = %34
  %41 = load ptr, ptr %8, align 8, !tbaa !100
  %42 = load i64, ptr %14, align 8, !tbaa !92
  %43 = getelementptr inbounds nuw %struct.pmix_device_distance, ptr %41, i64 %42
  %44 = getelementptr inbounds nuw %struct.pmix_device_distance, ptr %43, i32 0, i32 0
  %45 = load ptr, ptr %44, align 8, !tbaa !138
  %46 = icmp ne ptr null, %45
  br i1 %46, label %47, label %60

47:                                               ; preds = %40
  %48 = load ptr, ptr %8, align 8, !tbaa !100
  %49 = load i64, ptr %14, align 8, !tbaa !92
  %50 = getelementptr inbounds nuw %struct.pmix_device_distance, ptr %48, i64 %49
  %51 = getelementptr inbounds nuw %struct.pmix_device_distance, ptr %50, i32 0, i32 0
  %52 = load ptr, ptr %51, align 8, !tbaa !138
  %53 = call noalias ptr @strdup(ptr noundef %52) #10
  %54 = load ptr, ptr %13, align 8, !tbaa !3
  %55 = getelementptr inbounds nuw %struct.pmix_cb_t, ptr %54, i32 0, i32 19
  %56 = load ptr, ptr %55, align 8, !tbaa !103
  %57 = load i64, ptr %14, align 8, !tbaa !92
  %58 = getelementptr inbounds nuw %struct.pmix_device_distance, ptr %56, i64 %57
  %59 = getelementptr inbounds nuw %struct.pmix_device_distance, ptr %58, i32 0, i32 0
  store ptr %53, ptr %59, align 8, !tbaa !138
  br label %60

60:                                               ; preds = %47, %40
  %61 = load ptr, ptr %8, align 8, !tbaa !100
  %62 = load i64, ptr %14, align 8, !tbaa !92
  %63 = getelementptr inbounds nuw %struct.pmix_device_distance, ptr %61, i64 %62
  %64 = getelementptr inbounds nuw %struct.pmix_device_distance, ptr %63, i32 0, i32 1
  %65 = load ptr, ptr %64, align 8, !tbaa !140
  %66 = icmp ne ptr null, %65
  br i1 %66, label %67, label %80

67:                                               ; preds = %60
  %68 = load ptr, ptr %8, align 8, !tbaa !100
  %69 = load i64, ptr %14, align 8, !tbaa !92
  %70 = getelementptr inbounds nuw %struct.pmix_device_distance, ptr %68, i64 %69
  %71 = getelementptr inbounds nuw %struct.pmix_device_distance, ptr %70, i32 0, i32 1
  %72 = load ptr, ptr %71, align 8, !tbaa !140
  %73 = call noalias ptr @strdup(ptr noundef %72) #10
  %74 = load ptr, ptr %13, align 8, !tbaa !3
  %75 = getelementptr inbounds nuw %struct.pmix_cb_t, ptr %74, i32 0, i32 19
  %76 = load ptr, ptr %75, align 8, !tbaa !103
  %77 = load i64, ptr %14, align 8, !tbaa !92
  %78 = getelementptr inbounds nuw %struct.pmix_device_distance, ptr %76, i64 %77
  %79 = getelementptr inbounds nuw %struct.pmix_device_distance, ptr %78, i32 0, i32 1
  store ptr %73, ptr %79, align 8, !tbaa !140
  br label %80

80:                                               ; preds = %67, %60
  %81 = load ptr, ptr %8, align 8, !tbaa !100
  %82 = load i64, ptr %14, align 8, !tbaa !92
  %83 = getelementptr inbounds nuw %struct.pmix_device_distance, ptr %81, i64 %82
  %84 = getelementptr inbounds nuw %struct.pmix_device_distance, ptr %83, i32 0, i32 2
  %85 = load i64, ptr %84, align 8, !tbaa !141
  %86 = load ptr, ptr %13, align 8, !tbaa !3
  %87 = getelementptr inbounds nuw %struct.pmix_cb_t, ptr %86, i32 0, i32 19
  %88 = load ptr, ptr %87, align 8, !tbaa !103
  %89 = load i64, ptr %14, align 8, !tbaa !92
  %90 = getelementptr inbounds nuw %struct.pmix_device_distance, ptr %88, i64 %89
  %91 = getelementptr inbounds nuw %struct.pmix_device_distance, ptr %90, i32 0, i32 2
  store i64 %85, ptr %91, align 8, !tbaa !141
  %92 = load ptr, ptr %8, align 8, !tbaa !100
  %93 = load i64, ptr %14, align 8, !tbaa !92
  %94 = getelementptr inbounds nuw %struct.pmix_device_distance, ptr %92, i64 %93
  %95 = getelementptr inbounds nuw %struct.pmix_device_distance, ptr %94, i32 0, i32 3
  %96 = load i16, ptr %95, align 8, !tbaa !142
  %97 = load ptr, ptr %13, align 8, !tbaa !3
  %98 = getelementptr inbounds nuw %struct.pmix_cb_t, ptr %97, i32 0, i32 19
  %99 = load ptr, ptr %98, align 8, !tbaa !103
  %100 = load i64, ptr %14, align 8, !tbaa !92
  %101 = getelementptr inbounds nuw %struct.pmix_device_distance, ptr %99, i64 %100
  %102 = getelementptr inbounds nuw %struct.pmix_device_distance, ptr %101, i32 0, i32 3
  store i16 %96, ptr %102, align 8, !tbaa !142
  %103 = load ptr, ptr %8, align 8, !tbaa !100
  %104 = load i64, ptr %14, align 8, !tbaa !92
  %105 = getelementptr inbounds nuw %struct.pmix_device_distance, ptr %103, i64 %104
  %106 = getelementptr inbounds nuw %struct.pmix_device_distance, ptr %105, i32 0, i32 4
  %107 = load i16, ptr %106, align 2, !tbaa !143
  %108 = load ptr, ptr %13, align 8, !tbaa !3
  %109 = getelementptr inbounds nuw %struct.pmix_cb_t, ptr %108, i32 0, i32 19
  %110 = load ptr, ptr %109, align 8, !tbaa !103
  %111 = load i64, ptr %14, align 8, !tbaa !92
  %112 = getelementptr inbounds nuw %struct.pmix_device_distance, ptr %110, i64 %111
  %113 = getelementptr inbounds nuw %struct.pmix_device_distance, ptr %112, i32 0, i32 4
  store i16 %107, ptr %113, align 2, !tbaa !143
  br label %114

114:                                              ; preds = %80
  %115 = load i64, ptr %14, align 8, !tbaa !92
  %116 = add i64 %115, 1
  store i64 %116, ptr %14, align 8, !tbaa !92
  br label %34, !llvm.loop !144

117:                                              ; preds = %34
  br label %118

118:                                              ; preds = %117, %24, %6
  %119 = load ptr, ptr %11, align 8, !tbaa !3
  %120 = icmp ne ptr null, %119
  br i1 %120, label %121, label %124

121:                                              ; preds = %118
  %122 = load ptr, ptr %11, align 8, !tbaa !3
  %123 = load ptr, ptr %12, align 8, !tbaa !3
  call void %122(ptr noundef %123)
  br label %124

124:                                              ; preds = %121, %118
  br label %125

125:                                              ; preds = %124
  %126 = load ptr, ptr %13, align 8, !tbaa !3
  %127 = getelementptr inbounds nuw %struct.pmix_cb_t, ptr %126, i32 0, i32 2
  %128 = getelementptr inbounds nuw %struct.pmix_lock_t, ptr %127, i32 0, i32 1
  call void @pmix_mutex_lock(ptr noundef %128)
  %129 = load ptr, ptr %13, align 8, !tbaa !3
  %130 = getelementptr inbounds nuw %struct.pmix_cb_t, ptr %129, i32 0, i32 2
  %131 = getelementptr inbounds nuw %struct.pmix_lock_t, ptr %130, i32 0, i32 3
  store volatile i8 0, ptr %131, align 8, !tbaa !61
  call void @pmix_atomic_wmb()
  %132 = load ptr, ptr %13, align 8, !tbaa !3
  %133 = getelementptr inbounds nuw %struct.pmix_cb_t, ptr %132, i32 0, i32 2
  %134 = getelementptr inbounds nuw %struct.pmix_lock_t, ptr %133, i32 0, i32 2
  %135 = call i32 @pthread_cond_broadcast(ptr noundef %134) #10
  %136 = load ptr, ptr %13, align 8, !tbaa !3
  %137 = getelementptr inbounds nuw %struct.pmix_cb_t, ptr %136, i32 0, i32 2
  %138 = getelementptr inbounds nuw %struct.pmix_lock_t, ptr %137, i32 0, i32 1
  call void @pmix_mutex_unlock(ptr noundef %138)
  br label %139

139:                                              ; preds = %125
  br label %140

140:                                              ; preds = %139
  call void @llvm.lifetime.end.p0(i64 8, ptr %14) #10
  call void @llvm.lifetime.end.p0(i64 8, ptr %13) #10
  ret void
}