; Function Attrs: nounwind uwtable
define internal void @distcb(i32 noundef %0, ptr noundef readonly captures(none) %1, i64 noundef %2, ptr noundef initializes((500, 504), (792, 800)) %3, ptr noundef readonly captures(address_is_null) %4, ptr noundef %5) #0 {
  %7 = getelementptr inbounds nuw i8, ptr %3, i64 500
  store i32 %0, ptr %7, align 4, !tbaa !78
  %8 = getelementptr inbounds nuw i8, ptr %3, i64 792
  store i64 %2, ptr %8, align 8, !tbaa !80
  %9 = icmp eq i32 %0, 0
  %10 = icmp ne i64 %2, 0
  %or.cond = and i1 %9, %10
  br i1 %or.cond, label %11, label %.loopexit

11:                                               ; preds = %6
  %12 = tail call ptr @PMIx_Device_distance_create(i64 noundef %2) #12
  %13 = getelementptr inbounds nuw i8, ptr %3, i64 776
  store ptr %12, ptr %13, align 8, !tbaa !79
  %14 = load i64, ptr %8, align 8, !tbaa !80
  %.not50 = icmp eq i64 %14, 0
  br i1 %.not50, label %.loopexit, label %.lr.ph

.lr.ph:                                           ; preds = %11, %26
  %.049 = phi i64 [ %36, %26 ], [ 0, %11 ]
  %15 = getelementptr inbounds nuw %struct.pmix_device_distance, ptr %1, i64 %.049
  %16 = load ptr, ptr %15, align 8, !tbaa !116
  %.not47 = icmp eq ptr %16, null
  br i1 %.not47, label %20, label %17

17:                                               ; preds = %.lr.ph
  %18 = tail call noalias ptr @strdup(ptr noundef nonnull %16) #12
  %19 = getelementptr inbounds nuw %struct.pmix_device_distance, ptr %12, i64 %.049
  store ptr %18, ptr %19, align 8, !tbaa !116
  br label %20

20:                                               ; preds = %17, %.lr.ph
  %21 = getelementptr inbounds nuw i8, ptr %15, i64 8
  %22 = load ptr, ptr %21, align 8, !tbaa !118
  %.not48 = icmp eq ptr %22, null
  br i1 %.not48, label %26, label %23

23:                                               ; preds = %20
  %24 = tail call noalias ptr @strdup(ptr noundef nonnull %22) #12
  %25 = getelementptr inbounds nuw %struct.pmix_device_distance, ptr %12, i64 %.049, i32 1
  store ptr %24, ptr %25, align 8, !tbaa !118
  br label %26

26:                                               ; preds = %23, %20
  %27 = getelementptr inbounds nuw i8, ptr %15, i64 16
  %28 = load i64, ptr %27, align 8, !tbaa !119
  %29 = getelementptr inbounds nuw %struct.pmix_device_distance, ptr %12, i64 %.049, i32 2
  store i64 %28, ptr %29, align 8, !tbaa !119
  %30 = getelementptr inbounds nuw i8, ptr %15, i64 24
  %31 = load i16, ptr %30, align 8, !tbaa !120
  %32 = getelementptr inbounds nuw %struct.pmix_device_distance, ptr %12, i64 %.049, i32 3
  store i16 %31, ptr %32, align 8, !tbaa !120
  %33 = getelementptr inbounds nuw i8, ptr %15, i64 26
  %34 = load i16, ptr %33, align 2, !tbaa !121
  %35 = getelementptr inbounds nuw %struct.pmix_device_distance, ptr %12, i64 %.049, i32 4
  store i16 %34, ptr %35, align 2, !tbaa !121
  %36 = add nuw i64 %.049, 1
  %exitcond.not = icmp eq i64 %36, %14
  br i1 %exitcond.not, label %.loopexit, label %.lr.ph, !llvm.loop !122

.loopexit:                                        ; preds = %26, %11, %6
  %.not = icmp eq ptr %4, null
  br i1 %.not, label %38, label %37

37:                                               ; preds = %.loopexit
  tail call void %4(ptr noundef %5) #12
  br label %38

38:                                               ; preds = %.loopexit, %37
  %39 = getelementptr inbounds nuw i8, ptr %3, i64 400
  %40 = tail call i32 @pthread_mutex_lock(ptr noundef nonnull %39) #12
  %41 = getelementptr inbounds nuw i8, ptr %3, i64 488
  store volatile i8 0, ptr %41, align 8, !tbaa !63
  fence release
  %42 = getelementptr inbounds nuw i8, ptr %3, i64 440
  %43 = tail call i32 @pthread_cond_broadcast(ptr noundef nonnull %42) #12
  %44 = tail call i32 @pthread_mutex_unlock(ptr noundef nonnull %39) #12
  ret void
}